target datalayout = "e-m:e-p270:32:32-p271:32:32-p272:64:64-i64:64-i128:128-f80:128-n8:16:32:64-S128"
target triple = "x86_64-unknown-linux-gnu"

%"class.v8::IndirectHandleBase" = type { ptr }
%"class.std::unique_ptr.8" = type { %"struct.std::__uniq_ptr_data.9" }
%"struct.std::__uniq_ptr_data.9" = type { %"class.std::__uniq_ptr_impl.10" }
%"class.std::__uniq_ptr_impl.10" = type { %"class.std::tuple.11" }
%"class.std::tuple.11" = type { %"struct.std::_Tuple_impl.12" }
%"struct.std::_Tuple_impl.12" = type { %"struct.std::_Head_base.15" }
%"struct.std::_Head_base.15" = type { ptr }
%"class.std::__shared_count" = type { ptr }
%"class.std::unique_ptr" = type { %"struct.std::__uniq_ptr_data" }
%"struct.std::__uniq_ptr_data" = type { %"class.std::__uniq_ptr_impl" }
%"class.std::__uniq_ptr_impl" = type { %"class.std::tuple" }
%"class.std::tuple" = type { %"struct.std::_Tuple_impl" }
%"struct.std::_Tuple_impl" = type { %"struct.std::_Head_base.4" }
%"struct.std::_Head_base.4" = type { ptr }
%"struct.node::ThreadId" = type { i64 }
%"class.std::vector" = type { %"struct.std::_Vector_base" }
%"struct.std::_Vector_base" = type { %"struct.std::_Vector_base<std::__cxx11::basic_string<char>, std::allocator<std::__cxx11::basic_string<char>>>::_Vector_impl" }
%"struct.std::_Vector_base<std::__cxx11::basic_string<char>, std::allocator<std::__cxx11::basic_string<char>>>::_Vector_impl" = type { %"struct.std::_Vector_base<std::__cxx11::basic_string<char>, std::allocator<std::__cxx11::basic_string<char>>>::_Vector_impl_data" }
%"struct.std::_Vector_base<std::__cxx11::basic_string<char>, std::allocator<std::__cxx11::basic_string<char>>>::_Vector_impl_data" = type { ptr, ptr, ptr }
%"class.std::__cxx11::basic_string" = type { %"struct.std::__cxx11::basic_string<char>::_Alloc_hider", i64, %union.anon }
%"struct.std::__cxx11::basic_string<char>::_Alloc_hider" = type { ptr }
%union.anon = type { i64, [8 x i8] }
%"class.node::worker::Worker" = type { %"class.node::AsyncWrap", %"class.std::shared_ptr", %"class.std::vector", %"class.std::vector", ptr, ptr, %"class.std::optional", %"class.std::unique_ptr", %"class.node::MutexBase", ptr, %"class.std::__cxx11::basic_string", i32, %"struct.node::ThreadId", i64, %"class.std::__cxx11::basic_string", [4 x double], i64, %"class.std::unique_ptr.8", %"class.std::shared_ptr.0", i8, i8, i64, ptr, ptr }
%"class.node::AsyncWrap" = type { %"class.node::BaseObject", i32, i8, double, double }
%"class.node::BaseObject" = type { %"class.node::MemoryRetainer", %"class.v8::Global", ptr, ptr }
%"class.node::MemoryRetainer" = type { ptr }
%"class.v8::Global" = type { %"class.v8::PersistentBase" }
%"class.v8::PersistentBase" = type { %"class.v8::IndirectHandleBase" }
%"class.std::shared_ptr" = type { %"class.std::__shared_ptr" }
%"class.std::__shared_ptr" = type { ptr, %"class.std::__shared_count" }
%"class.std::optional" = type { %"struct.std::_Optional_base" }
%"struct.std::_Optional_base" = type { %"struct.std::_Optional_payload" }
%"struct.std::_Optional_payload" = type { %"struct.std::_Optional_payload_base.base", [7 x i8] }
%"struct.std::_Optional_payload_base.base" = type <{ %"union.std::_Optional_payload_base<unsigned long>::_Storage", i8 }>
%"union.std::_Optional_payload_base<unsigned long>::_Storage" = type { i64 }
%"class.node::MutexBase" = type { %union.pthread_mutex_t }
%union.pthread_mutex_t = type { %struct.__pthread_mutex_s }
%struct.__pthread_mutex_s = type { i32, i32, i32, i32, i32, i16, i16, %struct.__pthread_internal_list }
%struct.__pthread_internal_list = type { ptr, ptr }
%"class.std::shared_ptr.0" = type { %"class.std::__shared_ptr.1" }
%"class.std::__shared_ptr.1" = type { ptr, %"class.std::__shared_count" }
%"class.v8::ResourceConstraints" = type { i64, i64, i64, i64, i64, ptr }

; Function Attrs: mustprogress nounwind uwtable
define linkonce_odr dso_local noundef i64 @_ZNK2v819ResourceConstraints24code_range_size_in_bytesEv(ptr noundef nonnull align 8 dereferenceable(48) %this) #4 comdat align 2 {
entry:
  %this.addr = alloca ptr, align 8
  store ptr %this, ptr %this.addr, align 8
  %this1 = load ptr, ptr %this.addr, align 8
  %code_range_size_ = getelementptr inbounds %"class.v8::ResourceConstraints", ptr %this1, i32 0, i32 0
  %0 = load i64, ptr %code_range_size_, align 8
  ret i64 %0
}

; Function Attrs: mustprogress nounwind uwtable
define linkonce_odr dso_local void @_ZN2v819ResourceConstraints28set_code_range_size_in_bytesEm(ptr noundef nonnull align 8 dereferenceable(48) %this, i64 noundef %limit) #4 comdat align 2 {
entry:
  %this.addr = alloca ptr, align 8
  %limit.addr = alloca i64, align 8
  store ptr %this, ptr %this.addr, align 8
  store i64 %limit, ptr %limit.addr, align 8
  %this1 = load ptr, ptr %this.addr, align 8
  %0 = load i64, ptr %limit.addr, align 8
  %code_range_size_ = getelementptr inbounds %"class.v8::ResourceConstraints", ptr %this1, i32 0, i32 0
  store i64 %0, ptr %code_range_size_, align 8
  ret void
}

; Function Attrs: mustprogress nounwind uwtable
define linkonce_odr dso_local noundef i64 @_ZNK2v819ResourceConstraints32max_old_generation_size_in_bytesEv(ptr noundef nonnull align 8 dereferenceable(48) %this) #4 comdat align 2 {
entry:
  %this.addr = alloca ptr, align 8
  store ptr %this, ptr %this.addr, align 8
  %this1 = load ptr, ptr %this.addr, align 8
  %max_old_generation_size_ = getelementptr inbounds %"class.v8::ResourceConstraints", ptr %this1, i32 0, i32 1
  %0 = load i64, ptr %max_old_generation_size_, align 8
  ret i64 %0
}

; Function Attrs: mustprogress nounwind uwtable
define linkonce_odr dso_local void @_ZN2v819ResourceConstraints36set_max_old_generation_size_in_bytesEm(ptr noundef nonnull align 8 dereferenceable(48) %this, i64 noundef %limit) #4 comdat align 2 {
entry:
  %this.addr = alloca ptr, align 8
  %limit.addr = alloca i64, align 8
  store ptr %this, ptr %this.addr, align 8
  store i64 %limit, ptr %limit.addr, align 8
  %this1 = load ptr, ptr %this.addr, align 8
  %0 = load i64, ptr %limit.addr, align 8
  %max_old_generation_size_ = getelementptr inbounds %"class.v8::ResourceConstraints", ptr %this1, i32 0, i32 1
  store i64 %0, ptr %max_old_generation_size_, align 8
  ret void
}

; Function Attrs: mustprogress nounwind uwtable
define linkonce_odr dso_local noundef i64 @_ZNK2v819ResourceConstraints34max_young_generation_size_in_bytesEv(ptr noundef nonnull align 8 dereferenceable(48) %this) #4 comdat align 2 {
entry:
  %this.addr = alloca ptr, align 8
  store ptr %this, ptr %this.addr, align 8
  %this1 = load ptr, ptr %this.addr, align 8
  %max_young_generation_size_ = getelementptr inbounds %"class.v8::ResourceConstraints", ptr %this1, i32 0, i32 2
  %0 = load i64, ptr %max_young_generation_size_, align 8
  ret i64 %0
}

; Function Attrs: mustprogress nounwind uwtable
define linkonce_odr dso_local void @_ZN2v819ResourceConstraints38set_max_young_generation_size_in_bytesEm(ptr noundef nonnull align 8 dereferenceable(48) %this, i64 noundef %limit) #4 comdat align 2 {
entry:
  %this.addr = alloca ptr, align 8
  %limit.addr = alloca i64, align 8
  store ptr %this, ptr %this.addr, align 8
  store i64 %limit, ptr %limit.addr, align 8
  %this1 = load ptr, ptr %this.addr, align 8
  %0 = load i64, ptr %limit.addr, align 8
  %max_young_generation_size_ = getelementptr inbounds %"class.v8::ResourceConstraints", ptr %this1, i32 0, i32 2
  store i64 %0, ptr %max_young_generation_size_, align 8
  ret void
}

; Function Attrs: mustprogress nounwind uwtable
define linkonce_odr dso_local void @_ZN2v819ResourceConstraints15set_stack_limitEPj(ptr noundef nonnull align 8 dereferenceable(48) %this, ptr noundef %value) #4 comdat align 2 {
entry:
  %this.addr = alloca ptr, align 8
  %value.addr = alloca ptr, align 8
  store ptr %this, ptr %this.addr, align 8
  store ptr %value, ptr %value.addr, align 8
  %this1 = load ptr, ptr %this.addr, align 8
  %0 = load ptr, ptr %value.addr, align 8
  %stack_limit_ = getelementptr inbounds %"class.v8::ResourceConstraints", ptr %this1, i32 0, i32 5
  store ptr %0, ptr %stack_limit_, align 8
  ret void
}

; Function Attrs: mustprogress nounwind uwtable
define dso_local void @_ZN4node6worker6Worker25UpdateResourceConstraintsEPN2v819ResourceConstraintsE(ptr noundef nonnull align 8 dereferenceable(392) %this, ptr noundef %constraints) #4 align 2 {
entry:
  %this.addr = alloca ptr, align 8
  %constraints.addr = alloca ptr, align 8
  store ptr %this, ptr %this.addr, align 8
  store ptr %constraints, ptr %constraints.addr, align 8
  %this1 = load ptr, ptr %this.addr, align 8
  %0 = load ptr, ptr %constraints.addr, align 8
  %stack_base_ = getelementptr inbounds %"class.node::worker::Worker", ptr %this1, i32 0, i32 13
  %1 = load i64, ptr %stack_base_, align 8
  %2 = inttoptr i64 %1 to ptr
  call void @_ZN2v819ResourceConstraints15set_stack_limitEPj(ptr noundef nonnull align 8 dereferenceable(48) %0, ptr noundef %2)
  %resource_limits_ = getelementptr inbounds %"class.node::worker::Worker", ptr %this1, i32 0, i32 15
  %arrayidx = getelementptr inbounds [4 x double], ptr %resource_limits_, i64 0, i64 0
  %3 = load double, ptr %arrayidx, align 8
  %cmp = fcmp ogt double %3, 0.000000e+00
  br i1 %cmp, label %if.then, label %if.else

if.then:                                          ; preds = %entry
  %4 = load ptr, ptr %constraints.addr, align 8
  %resource_limits_2 = getelementptr inbounds %"class.node::worker::Worker", ptr %this1, i32 0, i32 15
  %arrayidx3 = getelementptr inbounds [4 x double], ptr %resource_limits_2, i64 0, i64 0
  %5 = load double, ptr %arrayidx3, align 8
  %mul = fmul double %5, 0x4130000000000000
  %conv = fptoui double %mul to i64
  call void @_ZN2v819ResourceConstraints38set_max_young_generation_size_in_bytesEm(ptr noundef nonnull align 8 dereferenceable(48) %4, i64 noundef %conv)
  br label %if.end

if.else:                                          ; preds = %entry
  %6 = load ptr, ptr %constraints.addr, align 8
  %call = call noundef i64 @_ZNK2v819ResourceConstraints34max_young_generation_size_in_bytesEv(ptr noundef nonnull align 8 dereferenceable(48) %6)
  %conv4 = uitofp i64 %call to double
  %div = fdiv double %conv4, 0x4130000000000000
  %resource_limits_5 = getelementptr inbounds %"class.node::worker::Worker", ptr %this1, i32 0, i32 15
  %arrayidx6 = getelementptr inbounds [4 x double], ptr %resource_limits_5, i64 0, i64 0
  store double %div, ptr %arrayidx6, align 8
  br label %if.end

if.end:                                           ; preds = %if.else, %if.then
  %resource_limits_7 = getelementptr inbounds %"class.node::worker::Worker", ptr %this1, i32 0, i32 15
  %arrayidx8 = getelementptr inbounds [4 x double], ptr %resource_limits_7, i64 0, i64 1
  %7 = load double, ptr %arrayidx8, align 8
  %cmp9 = fcmp ogt double %7, 0.000000e+00
  br i1 %cmp9, label %if.then10, label %if.else15

if.then10:                                        ; preds = %if.end
  %8 = load ptr, ptr %constraints.addr, align 8
  %resource_limits_11 = getelementptr inbounds %"class.node::worker::Worker", ptr %this1, i32 0, i32 15
  %arrayidx12 = getelementptr inbounds [4 x double], ptr %resource_limits_11, i64 0, i64 1
  %9 = load double, ptr %arrayidx12, align 8
  %mul13 = fmul double %9, 0x4130000000000000
  %conv14 = fptoui double %mul13 to i64
  call void @_ZN2v819ResourceConstraints36set_max_old_generation_size_in_bytesEm(ptr noundef nonnull align 8 dereferenceable(48) %8, i64 noundef %conv14)
  br label %if.end21

if.else15:                                        ; preds = %if.end
  %10 = load ptr, ptr %constraints.addr, align 8
  %call16 = call noundef i64 @_ZNK2v819ResourceConstraints32max_old_generation_size_in_bytesEv(ptr noundef nonnull align 8 dereferenceable(48) %10)
  %conv17 = uitofp i64 %call16 to double
  %div18 = fdiv double %conv17, 0x4130000000000000
  %resource_limits_19 = getelementptr inbounds %"class.node::worker::Worker", ptr %this1, i32 0, i32 15
  %arrayidx20 = getelementptr inbounds [4 x double], ptr %resource_limits_19, i64 0, i64 1
  store double %div18, ptr %arrayidx20, align 8
  br label %if.end21

if.end21:                                         ; preds = %if.else15, %if.then10
  %resource_limits_22 = getelementptr inbounds %"class.node::worker::Worker", ptr %this1, i32 0, i32 15
  %arrayidx23 = getelementptr inbounds [4 x double], ptr %resource_limits_22, i64 0, i64 2
  %11 = load double, ptr %arrayidx23, align 8
  %cmp24 = fcmp ogt double %11, 0.000000e+00
  br i1 %cmp24, label %if.then25, label %if.else30

if.then25:                                        ; preds = %if.end21
  %12 = load ptr, ptr %constraints.addr, align 8
  %resource_limits_26 = getelementptr inbounds %"class.node::worker::Worker", ptr %this1, i32 0, i32 15
  %arrayidx27 = getelementptr inbounds [4 x double], ptr %resource_limits_26, i64 0, i64 2
  %13 = load double, ptr %arrayidx27, align 8
  %mul28 = fmul double %13, 0x4130000000000000
  %conv29 = fptoui double %mul28 to i64
  call void @_ZN2v819ResourceConstraints28set_code_range_size_in_bytesEm(ptr noundef nonnull align 8 dereferenceable(48) %12, i64 noundef %conv29)
  br label %if.end36

if.else30:                                        ; preds = %if.end21
  %14 = load ptr, ptr %constraints.addr, align 8
  %call31 = call noundef i64 @_ZNK2v819ResourceConstraints24code_range_size_in_bytesEv(ptr noundef nonnull align 8 dereferenceable(48) %14)
  %conv32 = uitofp i64 %call31 to double
  %div33 = fdiv double %conv32, 0x4130000000000000
  %resource_limits_34 = getelementptr inbounds %"class.node::worker::Worker", ptr %this1, i32 0, i32 15
  %arrayidx35 = getelementptr inbounds [4 x double], ptr %resource_limits_34, i64 0, i64 2
  store double %div33, ptr %arrayidx35, align 8
  br label %if.end36

if.end36:                                         ; preds = %if.else30, %if.then25
  ret void
}