; Function Attrs: mustprogress nofree norecurse nosync nounwind willreturn memory(argmem: readwrite) uwtable
define dso_local void @_ZN4node6worker6Worker25UpdateResourceConstraintsEPN2v819ResourceConstraintsE(ptr nocapture noundef nonnull align 8 dereferenceable(392) %this, ptr nocapture noundef %constraints) local_unnamed_addr #5 align 2 {
entry:
  %stack_base_ = getelementptr inbounds i8, ptr %this, i64 256
  %0 = load i64, ptr %stack_base_, align 8
  %1 = inttoptr i64 %0 to ptr
  %stack_limit_.i = getelementptr inbounds i8, ptr %constraints, i64 40
  store ptr %1, ptr %stack_limit_.i, align 8
  %resource_limits_ = getelementptr inbounds i8, ptr %this, i64 296
  %2 = load double, ptr %resource_limits_, align 8
  %cmp = fcmp ogt double %2, 0.000000e+00
  br i1 %cmp, label %if.then, label %if.else

if.then:                                          ; preds = %entry
  %mul = fmul double %2, 0x4130000000000000
  %conv = fptoui double %mul to i64
  %max_young_generation_size_.i = getelementptr inbounds i8, ptr %constraints, i64 16
  store i64 %conv, ptr %max_young_generation_size_.i, align 8
  br label %if.end

if.else:                                          ; preds = %entry
  %max_young_generation_size_.i9 = getelementptr inbounds i8, ptr %constraints, i64 16
  %3 = load i64, ptr %max_young_generation_size_.i9, align 8
  %conv4 = uitofp i64 %3 to double
  %div = fmul double %conv4, 0x3EB0000000000000
  store double %div, ptr %resource_limits_, align 8
  br label %if.end

if.end:                                           ; preds = %if.else, %if.then
  %arrayidx8 = getelementptr inbounds i8, ptr %this, i64 304
  %4 = load double, ptr %arrayidx8, align 8
  %cmp9 = fcmp ogt double %4, 0.000000e+00
  br i1 %cmp9, label %if.then10, label %if.else15

if.then10:                                        ; preds = %if.end
  %mul13 = fmul double %4, 0x4130000000000000
  %conv14 = fptoui double %mul13 to i64
  %max_old_generation_size_.i = getelementptr inbounds i8, ptr %constraints, i64 8
  store i64 %conv14, ptr %max_old_generation_size_.i, align 8
  br label %if.end21

if.else15:                                        ; preds = %if.end
  %max_old_generation_size_.i10 = getelementptr inbounds i8, ptr %constraints, i64 8
  %5 = load i64, ptr %max_old_generation_size_.i10, align 8
  %conv17 = uitofp i64 %5 to double
  %div18 = fmul double %conv17, 0x3EB0000000000000
  store double %div18, ptr %arrayidx8, align 8
  br label %if.end21

if.end21:                                         ; preds = %if.else15, %if.then10
  %arrayidx23 = getelementptr inbounds i8, ptr %this, i64 312
  %6 = load double, ptr %arrayidx23, align 8
  %cmp24 = fcmp ogt double %6, 0.000000e+00
  br i1 %cmp24, label %if.then25, label %if.else30

if.then25:                                        ; preds = %if.end21
  %mul28 = fmul double %6, 0x4130000000000000
  %conv29 = fptoui double %mul28 to i64
  store i64 %conv29, ptr %constraints, align 8
  br label %if.end36

if.else30:                                        ; preds = %if.end21
  %7 = load i64, ptr %constraints, align 8
  %conv32 = uitofp i64 %7 to double
  %div33 = fmul double %conv32, 0x3EB0000000000000
  store double %div33, ptr %arrayidx23, align 8
  br label %if.end36

if.end36:                                         ; preds = %if.else30, %if.then25
  ret void
}